   1               		.file	"main.c"
   2               	__SREG__ = 0x3f
   3               	__SP_H__ = 0x3e
   4               	__SP_L__ = 0x3d
   5               	__CCP__  = 0x34
   6               	__tmp_reg__ = 0
   7               	__zero_reg__ = 1
  15               	.Ltext0:
  16               		.data
  17               	.LC0:
  18 0000 5458 204D 		.string	"TX Mode\r\n"
  18      6F64 650D 
  18      0A00 
  19               	.LC1:
  20 000a 5478 2064 		.string	"Tx data :"
  20      6174 6120 
  20      3A00 
  21               		.text
  22               	.global	main
  24               	main:
  25               	.LFB6:
  26               	.LM1:
  27 0000 AF92      		push r10
  28 0002 BF92      		push r11
  29 0004 CF92      		push r12
  30 0006 DF92      		push r13
  31 0008 EF92      		push r14
  32 000a FF92      		push r15
  33 000c 1F93      		push r17
  34 000e DF93      		push r29
  35 0010 CF93      		push r28
  36 0012 CDB7      		in r28,__SP_L__
  37 0014 DEB7      		in r29,__SP_H__
  38 0016 2E97      		sbiw r28,14
  39 0018 0FB6      		in __tmp_reg__,__SREG__
  40 001a F894      		cli
  41 001c DEBF      		out __SP_H__,r29
  42 001e 0FBE      		out __SREG__,__tmp_reg__
  43 0020 CDBF      		out __SP_L__,r28
  44               	/* prologue: function */
  45               	/* frame size = 14 */
  46               	.LM2:
  47 0022 60E0      		ldi r22,lo8(19200)
  48 0024 7BE4      		ldi r23,hi8(19200)
  49 0026 80E0      		ldi r24,hlo8(19200)
  50 0028 90E0      		ldi r25,hhi8(19200)
  51 002a 0E94 0000 		call UART_Init
  52               	.LM3:
  53 002e 80E0      		ldi r24,lo8(.LC0)
  54 0030 90E0      		ldi r25,hi8(.LC0)
  55 0032 0E94 0000 		call UART_Transmit_Text
  56               	.LM4:
  57 0036 0E94 0000 		call OneWire_Init_Master
  58 003a 80E1      		ldi r24,lo8(10000)
  59 003c 97E2      		ldi r25,hi8(10000)
  60               	.LVL0:
  61               	.LBB26:
  62               	.LBB27:
  63               	.LBB28:
  64               	.LBB29:
  65               	.LM5:
  66 003e 2CE2      		ldi r18,lo8(300)
  67 0040 31E0      		ldi r19,hi8(300)
  68               	.L2:
  69 0042 F901      		movw r30,r18
  70               	.LVL1:
  71               	/* #APP */
  72               	 ;  105 "c:/winavr-20100110/lib/gcc/../../avr/include/util/delay_basic.h" 1
  73 0044 3197      		1: sbiw r30,1
  74 0046 01F4      		brne 1b
  75               	 ;  0 "" 2
  76               	/* #NOAPP */
  77               	.LBE29:
  78               	.LBE28:
  79               	.LM6:
  80 0048 0197      		sbiw r24,1
  81               	.LM7:
  82 004a 01F4      		brne .L2
  83 004c 20E0      		ldi r18,lo8(0)
  84               	.LVL2:
  85               	.LBE27:
  86               	.LBE26:
  87               	.LBB30:
  88               	.LBB31:
  89               	.LBB32:
  90               	.LBB33:
  91               	.LBB34:
  92               	.LM8:
  93 004e 98EB      		ldi r25,lo8(3000)
  94 0050 A92E      		mov r10,r25
  95 0052 9BE0      		ldi r25,hi8(3000)
  96 0054 B92E      		mov r11,r25
  97               	.LBE34:
  98               	.LBE33:
  99               	.LBE32:
 100               	.LBE31:
 101               	.LBE30:
 102               	.LBB39:
 103               	.LM9:
 104 0056 7E01      		movw r14,r28
 105 0058 0894      		sec
 106 005a E11C      		adc r14,__zero_reg__
 107 005c F11C      		adc r15,__zero_reg__
 108               	.LBE39:
 109               	.LBB40:
 110               	.LBB41:
 111               	.LBB42:
 112               	.LBB43:
 113               	.LM10:
 114 005e 8CE2      		ldi r24,lo8(300)
 115 0060 C82E      		mov r12,r24
 116 0062 81E0      		ldi r24,hi8(300)
 117 0064 D82E      		mov r13,r24
 118               	.LVL3:
 119               	.L8:
 120               	.LBE43:
 121               	.LBE42:
 122               	.LBE41:
 123               	.LBE40:
 124               	.LM11:
 125 0066 2223      		tst r18
 126 0068 01F4      		brne .L3
 127               	.LBB47:
 128               	.LM12:
 129 006a D701      		movw r26,r14
 130 006c E0E0      		ldi r30,lo8(C.0.1374)
 131 006e F0E0      		ldi r31,hi8(C.0.1374)
 132               	.LVL4:
 133 0070 8EE0      		ldi r24,lo8(14)
 134               	.LVL5:
 135               	.L4:
 136 0072 0190      		ld r0,Z+
 137 0074 0D92      		st X+,r0
 138 0076 8150      		subi r24,lo8(-(-1))
 139 0078 01F4      		brne .L4
 140               	.LM13:
 141 007a C701      		movw r24,r14
 142 007c 6EE0      		ldi r22,lo8(14)
 143 007e 0E94 0000 		call OneWire_Master_Send_Data
 144               	.LVL6:
 145 0082 21E0      		ldi r18,lo8(1)
 146               	.LVL7:
 147 0084 00C0      		rjmp .L5
 148               	.LVL8:
 149               	.L3:
 150               	.LBE47:
 151               	.LM14:
 152 0086 80E0      		ldi r24,lo8(.LC1)
 153 0088 90E0      		ldi r25,hi8(.LC1)
 154               	.LVL9:
 155 008a 0E94 0000 		call UART_Transmit_Text
 156               	.LVL10:
 157 008e 10E0      		ldi r17,lo8(0)
 158               	.L6:
 159               	.LBB48:
 160               	.LM15:
 161 0090 812F      		mov r24,r17
 162 0092 0E94 0000 		call OneWire_Master_Receive_Data
 163 0096 90E0      		ldi r25,lo8(0)
 164 0098 A0E0      		ldi r26,lo8(0)
 165 009a B0E0      		ldi r27,hi8(0)
 166 009c BC01      		movw r22,r24
 167 009e CD01      		movw r24,r26
 168 00a0 0E94 0000 		call UART_Transmit_Number
 169               	.LM16:
 170 00a4 0E94 0000 		call UART_Transmit_Space
 171               	.LBB38:
 172               	.LBB37:
 173               	.LBB36:
 174               	.LBB35:
 175               	.LM17:
 176 00a8 C501      		movw r24,r10
 177               	.LVL11:
 178               	/* #APP */
 179               	 ;  105 "c:/winavr-20100110/lib/gcc/../../avr/include/util/delay_basic.h" 1
 180 00aa 0197      		1: sbiw r24,1
 181 00ac 01F4      		brne 1b
 182               	 ;  0 "" 2
 183               	/* #NOAPP */
 184               	.LBE35:
 185               	.LBE36:
 186               	.LBE37:
 187               	.LBE38:
 188               	.LM18:
 189 00ae 1F5F      		subi r17,lo8(-(1))
 190 00b0 1630      		cpi r17,lo8(6)
 191 00b2 01F4      		brne .L6
 192               	.LBE48:
 193               	.LM19:
 194 00b4 0E94 0000 		call UART_Transmit_New_Line
 195               	.LVL12:
 196 00b8 20E0      		ldi r18,lo8(0)
 197               	.LVL13:
 198               	.L5:
 199 00ba 88EE      		ldi r24,lo8(1000)
 200 00bc 93E0      		ldi r25,hi8(1000)
 201               	.LVL14:
 202               	.L7:
 203               	.LBB49:
 204               	.LBB46:
 205               	.LBB45:
 206               	.LBB44:
 207               	.LM20:
 208 00be F601      		movw r30,r12
 209               	.LVL15:
 210               	/* #APP */
 211               	 ;  105 "c:/winavr-20100110/lib/gcc/../../avr/include/util/delay_basic.h" 1
 212 00c0 3197      		1: sbiw r30,1
 213 00c2 01F4      		brne 1b
 214               	 ;  0 "" 2
 215               	/* #NOAPP */
 216               	.LBE44:
 217               	.LBE45:
 218               	.LM21:
 219 00c4 0197      		sbiw r24,1
 220               	.LM22:
 221 00c6 01F4      		brne .L7
 222 00c8 00C0      		rjmp .L8
 223               	.LBE46:
 224               	.LBE49:
 225               	.LFE6:
 227               		.data
 230               	C.0.1374:
 231 0014 00        		.byte	0
 232 0015 01        		.byte	1
 233 0016 02        		.byte	2
 234 0017 03        		.byte	3
 235 0018 04        		.byte	4
 236 0019 05        		.byte	5
 237 001a 06        		.byte	6
 238 001b 07        		.byte	7
 239 001c 08        		.byte	8
 240 001d 09        		.byte	9
 241 001e 0A        		.byte	10
 242 001f 0B        		.byte	11
 243 0020 0C        		.byte	12
 244 0021 0D        		.byte	13
 269               	.Letext0:
DEFINED SYMBOLS
                            *ABS*:00000000 main.c
C:\Users\farid\AppData\Local\Temp/ccliAJAg.s:2      *ABS*:0000003f __SREG__
C:\Users\farid\AppData\Local\Temp/ccliAJAg.s:3      *ABS*:0000003e __SP_H__
C:\Users\farid\AppData\Local\Temp/ccliAJAg.s:4      *ABS*:0000003d __SP_L__
C:\Users\farid\AppData\Local\Temp/ccliAJAg.s:5      *ABS*:00000034 __CCP__
C:\Users\farid\AppData\Local\Temp/ccliAJAg.s:6      *ABS*:00000000 __tmp_reg__
C:\Users\farid\AppData\Local\Temp/ccliAJAg.s:7      *ABS*:00000001 __zero_reg__
C:\Users\farid\AppData\Local\Temp/ccliAJAg.s:24     .text:00000000 main
C:\Users\farid\AppData\Local\Temp/ccliAJAg.s:230    .data:00000014 C.0.1374

UNDEFINED SYMBOLS
UART_Init
UART_Transmit_Text
OneWire_Init_Master
OneWire_Master_Send_Data
OneWire_Master_Receive_Data
UART_Transmit_Number
UART_Transmit_Space
UART_Transmit_New_Line
__do_copy_data
