   1               		.file	"onewire.c"
   2               	__SREG__ = 0x3f
   3               	__SP_H__ = 0x3e
   4               	__SP_L__ = 0x3d
   5               	__CCP__  = 0x34
   6               	__tmp_reg__ = 0
   7               	__zero_reg__ = 1
  15               	.Ltext0:
  16               	.global	OneWire_Struct_Init
  18               	OneWire_Struct_Init:
  19               	.LFB6:
  20               	.LM1:
  21               	/* prologue: function */
  22               	/* frame size = 0 */
  23               	.LM2:
  24 0000 1092 0000 		sts OneWire,__zero_reg__
  25               	.LM3:
  26 0004 1092 0000 		sts (OneWire+1)+1,__zero_reg__
  27 0008 1092 0000 		sts OneWire+1,__zero_reg__
  28               	.LM4:
  29 000c 1092 0000 		sts (OneWire+3)+1,__zero_reg__
  30 0010 1092 0000 		sts OneWire+3,__zero_reg__
  31 0014 80E0      		ldi r24,lo8(0)
  32 0016 90E0      		ldi r25,hi8(0)
  33               	.L2:
  34               	.LBB289:
  35               	.LM5:
  36 0018 FC01      		movw r30,r24
  37 001a EE0F      		lsl r30
  38 001c FF1F      		rol r31
  39 001e E050      		subi r30,lo8(-(OneWire))
  40 0020 F040      		sbci r31,hi8(-(OneWire))
  41 0022 1682      		std Z+6,__zero_reg__
  42 0024 1582      		std Z+5,__zero_reg__
  43 0026 0196      		adiw r24,1
  44               	.LM6:
  45 0028 8837      		cpi r24,120
  46 002a 9105      		cpc r25,__zero_reg__
  47 002c 01F4      		brne .L2
  48               	.LBE289:
  49               	.LM7:
  50 002e 1092 0000 		sts OneWire+245,__zero_reg__
  51               	.LM8:
  52 0032 1092 0000 		sts OneWire+246,__zero_reg__
  53               	.LM9:
  54 0036 1092 0000 		sts (OneWire+247)+1,__zero_reg__
  55 003a 1092 0000 		sts OneWire+247,__zero_reg__
  56               	.LM10:
  57 003e 1092 0000 		sts (OneWire+249)+1,__zero_reg__
  58 0042 1092 0000 		sts OneWire+249,__zero_reg__
  59               	.LM11:
  60 0046 1092 0000 		sts (OneWire+251)+1,__zero_reg__
  61 004a 1092 0000 		sts OneWire+251,__zero_reg__
  62               	.LM12:
  63 004e 1092 0000 		sts OneWire+253,__zero_reg__
  64               	.LM13:
  65 0052 1092 0000 		sts OneWire+254,__zero_reg__
  66               	/* epilogue start */
  67               	.LM14:
  68 0056 0895      		ret
  69               	.LFE6:
  71               	.global	OneWire_Flush_Frame
  73               	OneWire_Flush_Frame:
  74               	.LFB7:
  75               	.LM15:
  76               	/* prologue: function */
  77               	/* frame size = 0 */
  78               	.LM16:
  79 0058 1092 0000 		sts OneWire,__zero_reg__
  80               	.LM17:
  81 005c 1092 0000 		sts (OneWire+1)+1,__zero_reg__
  82 0060 1092 0000 		sts OneWire+1,__zero_reg__
  83               	/* epilogue start */
  84               	.LM18:
  85 0064 0895      		ret
  86               	.LFE7:
  88               	.global	OneWire_Flush_Frame_Buf
  90               	OneWire_Flush_Frame_Buf:
  91               	.LFB8:
  92               	.LM19:
  93               	/* prologue: function */
  94               	/* frame size = 0 */
  95               	.LM20:
  96 0066 80E0      		ldi r24,lo8(0)
  97 0068 90E0      		ldi r25,hi8(0)
  98               	.L8:
  99               	.LBB290:
 100               	.LM21:
 101 006a FC01      		movw r30,r24
 102 006c EE0F      		lsl r30
 103 006e FF1F      		rol r31
 104 0070 E050      		subi r30,lo8(-(OneWire))
 105 0072 F040      		sbci r31,hi8(-(OneWire))
 106 0074 1682      		std Z+6,__zero_reg__
 107 0076 1582      		std Z+5,__zero_reg__
 108 0078 0196      		adiw r24,1
 109               	.LM22:
 110 007a 8837      		cpi r24,120
 111 007c 9105      		cpc r25,__zero_reg__
 112 007e 01F4      		brne .L8
 113               	.LBE290:
 114               	.LM23:
 115 0080 1092 0000 		sts OneWire+245,__zero_reg__
 116               	/* epilogue start */
 117               	.LM24:
 118 0084 0895      		ret
 119               	.LFE8:
 121               	.global	OneWire_TRX_Set_DDR
 123               	OneWire_TRX_Set_DDR:
 124               	.LFB9:
 125               	.LM25:
 126               	.LVL0:
 127               	/* prologue: function */
 128               	/* frame size = 0 */
 129               	.LM26:
 130 0086 8823      		tst r24
 131 0088 01F4      		brne .L12
 132               	.LM27:
 133 008a 3D98      		cbi 39-32,5
 134 008c 0895      		ret
 135               	.L12:
 136               	.LM28:
 137 008e 3D9A      		sbi 39-32,5
 138 0090 0895      		ret
 139               	.LFE9:
 141               	.global	OneWire_TRX_Set_Port
 143               	OneWire_TRX_Set_Port:
 144               	.LFB10:
 145               	.LM29:
 146               	.LVL1:
 147               	/* prologue: function */
 148               	/* frame size = 0 */
 149               	.LM30:
 150 0092 8823      		tst r24
 151 0094 01F4      		brne .L16
 152               	.LM31:
 153 0096 4598      		cbi 40-32,5
 154 0098 0895      		ret
 155               	.L16:
 156               	.LM32:
 157 009a 459A      		sbi 40-32,5
 158 009c 0895      		ret
 159               	.LFE10:
 161               	.global	OneWire_TRX_Get_Input_State
 163               	OneWire_TRX_Get_Input_State:
 164               	.LFB11:
 165               	.LM33:
 166               	/* prologue: function */
 167               	/* frame size = 0 */
 168               	.LM34:
 169 009e 86B1      		in r24,38-32
 170 00a0 90E0      		ldi r25,lo8(0)
 171 00a2 45E0      		ldi r20,5
 172 00a4 9695      	1:	lsr r25
 173 00a6 8795      		ror r24
 174 00a8 4A95      		dec r20
 175 00aa 01F4      		brne 1b
 176               	.LM35:
 177 00ac 8170      		andi r24,lo8(1)
 178               	/* epilogue start */
 179 00ae 0895      		ret
 180               	.LFE11:
 182               	.global	OneWire_TRX_Set_Logic
 184               	OneWire_TRX_Set_Logic:
 185               	.LFB12:
 186               	.LM36:
 187               	.LVL2:
 188               	/* prologue: function */
 189               	/* frame size = 0 */
 190               	.LM37:
 191 00b0 8823      		tst r24
 192 00b2 01F4      		brne .L22
 193               	.LBB291:
 194               	.LBB292:
 195               	.LM38:
 196 00b4 3D9A      		sbi 39-32,5
 197 00b6 0895      		ret
 198               	.L22:
 199               	.LBE292:
 200               	.LBE291:
 201               	.LBB293:
 202               	.LBB294:
 203               	.LM39:
 204 00b8 3D98      		cbi 39-32,5
 205 00ba 0895      		ret
 206               	.LBE294:
 207               	.LBE293:
 208               	.LFE12:
 210               	.global	OneWire_TRX_GPIO_Init
 212               	OneWire_TRX_GPIO_Init:
 213               	.LFB13:
 214               	.LM40:
 215               	/* prologue: function */
 216               	/* frame size = 0 */
 217               	.LBB295:
 218               	.LBB296:
 219               	.LM41:
 220 00bc 4598      		cbi 40-32,5
 221               	.LBE296:
 222               	.LBE295:
 223               	.LBB297:
 224               	.LBB298:
 225               	.LM42:
 226 00be 3D98      		cbi 39-32,5
 227               	.LBE298:
 228               	.LBE297:
 229               	.LBB299:
 230               	.LBB300:
 231               	.LBB301:
 232               	.LBB302:
 233 00c0 3D98      		cbi 39-32,5
 234               	.LBE302:
 235               	.LBE301:
 236               	.LBE300:
 237               	.LBE299:
 238               	.LM43:
 239 00c2 3C9A      		sbi 39-32,4
 240               	.LM44:
 241 00c4 4498      		cbi 40-32,4
 242               	/* epilogue start */
 243               	.LM45:
 244 00c6 0895      		ret
 245               	.LFE13:
 247               	.global	OneWire_TRX_Interrupt_Init
 249               	OneWire_TRX_Interrupt_Init:
 250               	.LFB14:
 251               	.LM46:
 252               	/* prologue: function */
 253               	/* frame size = 0 */
 254               	.LM47:
 255 00c8 E8E6      		ldi r30,lo8(104)
 256 00ca F0E0      		ldi r31,hi8(104)
 257 00cc 8081      		ld r24,Z
 258 00ce 8260      		ori r24,lo8(2)
 259 00d0 8083      		st Z,r24
 260               	.LM48:
 261 00d2 D99A      		sbi 59-32,1
 262               	.LM49:
 263 00d4 ECE6      		ldi r30,lo8(108)
 264 00d6 F0E0      		ldi r31,hi8(108)
 265 00d8 8081      		ld r24,Z
 266 00da 8F7D      		andi r24,lo8(-33)
 267 00dc 8083      		st Z,r24
 268               	.LM50:
 269               	/* #APP */
 270               	 ;  144 "onewire.c" 1
 271 00de 7894      		sei
 272               	 ;  0 "" 2
 273               	/* epilogue start */
 274               	.LM51:
 275               	/* #NOAPP */
 276 00e0 0895      		ret
 277               	.LFE14:
 279               	.global	OneWire_TRX_Interrupt_Enable
 281               	OneWire_TRX_Interrupt_Enable:
 282               	.LFB15:
 283               	.LM52:
 284               	/* prologue: function */
 285               	/* frame size = 0 */
 286               	.LM53:
 287 00e2 ECE6      		ldi r30,lo8(108)
 288 00e4 F0E0      		ldi r31,hi8(108)
 289 00e6 8081      		ld r24,Z
 290 00e8 8062      		ori r24,lo8(32)
 291 00ea 8083      		st Z,r24
 292               	/* epilogue start */
 293               	.LM54:
 294 00ec 0895      		ret
 295               	.LFE15:
 297               	.global	OneWire_TRX_Interrupt_Disable
 299               	OneWire_TRX_Interrupt_Disable:
 300               	.LFB16:
 301               	.LM55:
 302               	/* prologue: function */
 303               	/* frame size = 0 */
 304               	.LM56:
 305 00ee ECE6      		ldi r30,lo8(108)
 306 00f0 F0E0      		ldi r31,hi8(108)
 307 00f2 8081      		ld r24,Z
 308 00f4 8F7D      		andi r24,lo8(-33)
 309 00f6 8083      		st Z,r24
 310               	/* epilogue start */
 311               	.LM57:
 312 00f8 0895      		ret
 313               	.LFE16:
 315               	.global	OneWire_TRX_Interrupt_Status
 317               	OneWire_TRX_Interrupt_Status:
 318               	.LFB17:
 319               	.LM58:
 320               	/* prologue: function */
 321               	/* frame size = 0 */
 322               	.LM59:
 323 00fa 8091 6C00 		lds r24,108
 324 00fe 90E0      		ldi r25,lo8(0)
 325 0100 55E0      		ldi r21,5
 326 0102 9695      	1:	lsr r25
 327 0104 8795      		ror r24
 328 0106 5A95      		dec r21
 329 0108 01F4      		brne 1b
 330               	.LM60:
 331 010a 8170      		andi r24,lo8(1)
 332               	/* epilogue start */
 333 010c 0895      		ret
 334               	.LFE17:
 336               	.global	OneWire_TRX_Falling_Edge_Interrupt
 338               	OneWire_TRX_Falling_Edge_Interrupt:
 339               	.LFB18:
 340               	.LM61:
 341               	/* prologue: function */
 342               	/* frame size = 0 */
 343               	.LBB303:
 344               	.LBB304:
 345               	.LM62:
 346 010e 86B1      		in r24,38-32
 347 0110 8295      		swap r24
 348 0112 8695      		lsr r24
 349 0114 8770      		andi r24,lo8(7)
 350 0116 8095      		com r24
 351               	.LBE304:
 352               	.LBE303:
 353               	.LM63:
 354 0118 8170      		andi r24,lo8(1)
 355               	/* epilogue start */
 356 011a 0895      		ret
 357               	.LFE18:
 359               	.global	OneWire_Debug_Tx_Pulse
 361               	OneWire_Debug_Tx_Pulse:
 362               	.LFB19:
 363               	.LM64:
 364               	/* prologue: function */
 365               	/* frame size = 0 */
 366               	/* epilogue start */
 367               	.LM65:
 368 011c 0895      		ret
 369               	.LFE19:
 371               	.global	OneWire_Debug_Rx_Pulse
 373               	OneWire_Debug_Rx_Pulse:
 374               	.LFB20:
 375               	.LM66:
 376               	/* prologue: function */
 377               	/* frame size = 0 */
 378               	.LM67:
 379 011e 449A      		sbi 40-32,4
 380               	.LBB305:
 381               	.LBB306:
 382               	.LBB307:
 383               	.LBB308:
 384               	.LM68:
 385 0120 82E0      		ldi r24,lo8(2)
 386               	.LVL3:
 387               	/* #APP */
 388               	 ;  83 "c:/winavr-20100110/lib/gcc/../../avr/include/util/delay_basic.h" 1
 389 0122 8A95      		1: dec r24
 390 0124 01F4      		brne 1b
 391               	 ;  0 "" 2
 392               	/* #NOAPP */
 393               	.LBE308:
 394               	.LBE307:
 395               	.LBE306:
 396               	.LBE305:
 397               	.LM69:
 398 0126 4498      		cbi 40-32,4
 399               	/* epilogue start */
 400               	.LM70:
 401 0128 0895      		ret
 402               	.LFE20:
 404               	.global	OneWire_Delay_Clock_Low_Time
 406               	OneWire_Delay_Clock_Low_Time:
 407               	.LFB21:
 408               	.LM71:
 409               	/* prologue: function */
 410               	/* frame size = 0 */
 411               	.LBB309:
 412               	.LBB310:
 413               	.LBB311:
 414               	.LBB312:
 415               	.LM72:
 416 012a 85E3      		ldi r24,lo8(53)
 417               	.LVL4:
 418               	/* #APP */
 419               	 ;  83 "c:/winavr-20100110/lib/gcc/../../avr/include/util/delay_basic.h" 1
 420 012c 8A95      		1: dec r24
 421 012e 01F4      		brne 1b
 422               	 ;  0 "" 2
 423               	/* epilogue start */
 424               	/* #NOAPP */
 425               	.LBE312:
 426               	.LBE311:
 427               	.LBE310:
 428               	.LBE309:
 429               	.LM73:
 430 0130 0895      		ret
 431               	.LFE21:
 433               	.global	OneWire_Delay_Clock_High_Time
 435               	OneWire_Delay_Clock_High_Time:
 436               	.LFB22:
 437               	.LM74:
 438               	/* prologue: function */
 439               	/* frame size = 0 */
 440               	.LBB313:
 441               	.LBB314:
 442               	.LBB315:
 443               	.LBB316:
 444               	.LM75:
 445 0132 85E3      		ldi r24,lo8(53)
 446               	.LVL5:
 447               	/* #APP */
 448               	 ;  83 "c:/winavr-20100110/lib/gcc/../../avr/include/util/delay_basic.h" 1
 449 0134 8A95      		1: dec r24
 450 0136 01F4      		brne 1b
 451               	 ;  0 "" 2
 452               	/* epilogue start */
 453               	/* #NOAPP */
 454               	.LBE316:
 455               	.LBE315:
 456               	.LBE314:
 457               	.LBE313:
 458               	.LM76:
 459 0138 0895      		ret
 460               	.LFE22:
 462               	.global	OneWire_Delay_Half_Bit_Time
 464               	OneWire_Delay_Half_Bit_Time:
 465               	.LFB23:
 466               	.LM77:
 467               	/* prologue: function */
 468               	/* frame size = 0 */
 469               	.LBB317:
 470               	.LBB318:
 471               	.LBB319:
 472               	.LBB320:
 473               	.LM78:
 474 013a 8AE6      		ldi r24,lo8(106)
 475               	.LVL6:
 476               	/* #APP */
 477               	 ;  83 "c:/winavr-20100110/lib/gcc/../../avr/include/util/delay_basic.h" 1
 478 013c 8A95      		1: dec r24
 479 013e 01F4      		brne 1b
 480               	 ;  0 "" 2
 481               	/* epilogue start */
 482               	/* #NOAPP */
 483               	.LBE320:
 484               	.LBE319:
 485               	.LBE318:
 486               	.LBE317:
 487               	.LM79:
 488 0140 0895      		ret
 489               	.LFE23:
 491               	.global	OneWire_Delay_Byte_Gap
 493               	OneWire_Delay_Byte_Gap:
 494               	.LFB24:
 495               	.LM80:
 496               	/* prologue: function */
 497               	/* frame size = 0 */
 498               	.LBB321:
 499               	.LBB322:
 500               	.LBB323:
 501               	.LBB324:
 502               	.LBB325:
 503               	.LBB326:
 504               	.LM81:
 505 0142 88EC      		ldi r24,lo8(200)
 506 0144 90E0      		ldi r25,hi8(200)
 507               	.LVL7:
 508               	/* #APP */
 509               	 ;  105 "c:/winavr-20100110/lib/gcc/../../avr/include/util/delay_basic.h" 1
 510 0146 0197      		1: sbiw r24,1
 511 0148 01F4      		brne 1b
 512               	 ;  0 "" 2
 513               	/* epilogue start */
 514               	/* #NOAPP */
 515               	.LBE326:
 516               	.LBE325:
 517               	.LBE324:
 518               	.LBE323:
 519               	.LBE322:
 520               	.LBE321:
 521               	.LM82:
 522 014a 0895      		ret
 523               	.LFE24:
 525               	.global	OneWire_Delay_Rx_Int
 527               	OneWire_Delay_Rx_Int:
 528               	.LFB25:
 529               	.LM83:
 530               	/* prologue: function */
 531               	/* frame size = 0 */
 532               	.LBB327:
 533               	.LBB328:
 534               	.LM84:
 535 014c ECE6      		ldi r30,lo8(108)
 536 014e F0E0      		ldi r31,hi8(108)
 537 0150 8081      		ld r24,Z
 538 0152 8F7D      		andi r24,lo8(-33)
 539 0154 8083      		st Z,r24
 540               	.LBE328:
 541               	.LBE327:
 542               	.LBB329:
 543               	.LBB330:
 544               	.LBB331:
 545               	.LBB332:
 546               	.LBB333:
 547               	.LBB334:
 548               	.LM85:
 549 0156 85E3      		ldi r24,lo8(53)
 550               	.LVL8:
 551               	/* #APP */
 552               	 ;  83 "c:/winavr-20100110/lib/gcc/../../avr/include/util/delay_basic.h" 1
 553 0158 8A95      		1: dec r24
 554 015a 01F4      		brne 1b
 555               	 ;  0 "" 2
 556               	/* #NOAPP */
 557               	.LBE334:
 558               	.LBE333:
 559               	.LBE332:
 560               	.LBE331:
 561               	.LBE330:
 562               	.LBE329:
 563               	.LBB335:
 564               	.LBB336:
 565               	.LBB337:
 566               	.LBB338:
 567               	.LBB339:
 568               	.LBB340:
 569 015c 8AE6      		ldi r24,lo8(106)
 570               	.LVL9:
 571               	/* #APP */
 572               	 ;  83 "c:/winavr-20100110/lib/gcc/../../avr/include/util/delay_basic.h" 1
 573 015e 8A95      		1: dec r24
 574 0160 01F4      		brne 1b
 575               	 ;  0 "" 2
 576               	/* #NOAPP */
 577               	.LBE340:
 578               	.LBE339:
 579               	.LBE338:
 580               	.LBE337:
 581               	.LBE336:
 582               	.LBE335:
 583               	.LBB341:
 584               	.LBB342:
 585               	.LM86:
 586 0162 8081      		ld r24,Z
 587               	.LVL10:
 588 0164 8062      		ori r24,lo8(32)
 589 0166 8083      		st Z,r24
 590               	/* epilogue start */
 591               	.LBE342:
 592               	.LBE341:
 593               	.LM87:
 594 0168 0895      		ret
 595               	.LFE25:
 597               	.global	OneWire_TRX_Byte
 599               	OneWire_TRX_Byte:
 600               	.LFB26:
 601               	.LM88:
 602               	.LVL11:
 603               	/* prologue: function */
 604               	/* frame size = 0 */
 605 016a AC01      		movw r20,r24
 606               	.LM89:
 607 016c 20E0      		ldi r18,lo8(0)
 608 016e 30E0      		ldi r19,hi8(0)
 609               	.LVL12:
 610 0170 60E0      		ldi r22,lo8(0)
 611               	.LVL13:
 612               	.LBB343:
 613               	.LBB344:
 614               	.LBB345:
 615               	.LBB346:
 616               	.LBB347:
 617               	.LBB348:
 618               	.LBB349:
 619               	.LM90:
 620 0172 E5E3      		ldi r30,lo8(53)
 621               	.LBE349:
 622               	.LBE348:
 623               	.LBE347:
 624               	.LBE346:
 625               	.LBE345:
 626               	.LBE344:
 627               	.LBB355:
 628               	.LBB356:
 629               	.LBB357:
 630               	.LBB358:
 631               	.LBB359:
 632               	.LBB360:
 633 0174 7AE6      		ldi r23,lo8(106)
 634               	.LVL14:
 635               	.L56:
 636               	.LBE360:
 637               	.LBE359:
 638               	.LBE358:
 639               	.LBE357:
 640               	.LBE356:
 641               	.LBE355:
 642               	.LBB366:
 643               	.LBB367:
 644               	.LBB368:
 645               	.LBB369:
 646               	.LM91:
 647 0176 3D9A      		sbi 39-32,5
 648               	.LBE369:
 649               	.LBE368:
 650               	.LBE367:
 651               	.LBE366:
 652               	.LBB370:
 653               	.LBB354:
 654               	.LBB353:
 655               	.LBB352:
 656               	.LBB351:
 657               	.LBB350:
 658               	.LM92:
 659 0178 8E2F      		mov r24,r30
 660               	.LVL15:
 661               	/* #APP */
 662               	 ;  83 "c:/winavr-20100110/lib/gcc/../../avr/include/util/delay_basic.h" 1
 663 017a 8A95      		1: dec r24
 664 017c 01F4      		brne 1b
 665               	 ;  0 "" 2
 666               	/* #NOAPP */
 667               	.LBE350:
 668               	.LBE351:
 669               	.LBE352:
 670               	.LBE353:
 671               	.LBE354:
 672               	.LBE370:
 673               	.LM93:
 674 017e 6B30      		cpi r22,lo8(11)
 675 0180 01F0      		breq .L52
 676               	.LM94:
 677 0182 53FD      		sbrc r21,3
 678 0184 00C0      		rjmp .L52
 679               	.L53:
 680               	.LBB371:
 681               	.LBB372:
 682               	.LBB373:
 683               	.LBB374:
 684               	.LM95:
 685 0186 3D9A      		sbi 39-32,5
 686 0188 00C0      		rjmp .L54
 687               	.L52:
 688               	.LBE374:
 689               	.LBE373:
 690               	.LBE372:
 691               	.LBE371:
 692               	.LBB375:
 693               	.LBB376:
 694               	.LBB377:
 695               	.LBB378:
 696               	.LM96:
 697 018a 3D98      		cbi 39-32,5
 698               	.L54:
 699               	.LBE378:
 700               	.LBE377:
 701               	.LBE376:
 702               	.LBE375:
 703               	.LBB379:
 704               	.LBB365:
 705               	.LBB364:
 706               	.LBB363:
 707               	.LBB362:
 708               	.LBB361:
 709               	.LM97:
 710 018c 872F      		mov r24,r23
 711               	.LVL16:
 712               	/* #APP */
 713               	 ;  83 "c:/winavr-20100110/lib/gcc/../../avr/include/util/delay_basic.h" 1
 714 018e 8A95      		1: dec r24
 715 0190 01F4      		brne 1b
 716               	 ;  0 "" 2
 717               	/* #NOAPP */
 718               	.LBE361:
 719               	.LBE362:
 720               	.LBE363:
 721               	.LBE364:
 722               	.LBE365:
 723               	.LBE379:
 724               	.LM98:
 725 0192 220F      		lsl r18
 726 0194 331F      		rol r19
 727               	.LBB380:
 728               	.LBB381:
 729               	.LM99:
 730 0196 86B1      		in r24,38-32
 731               	.LVL17:
 732               	.LBE381:
 733               	.LBE380:
 734               	.LM100:
 735 0198 90E0      		ldi r25,lo8(0)
 736 019a A5E0      		ldi r26,5
 737 019c 9695      	1:	lsr r25
 738 019e 8795      		ror r24
 739 01a0 AA95      		dec r26
 740 01a2 01F4      		brne 1b
 741 01a4 8170      		andi r24,lo8(1)
 742 01a6 9070      		andi r25,hi8(1)
 743 01a8 282B      		or r18,r24
 744 01aa 392B      		or r19,r25
 745               	.LBB382:
 746               	.LBB383:
 747               	.LBB384:
 748               	.LBB385:
 749               	.LBB386:
 750               	.LBB387:
 751               	.LM101:
 752 01ac 872F      		mov r24,r23
 753               	.LVL18:
 754               	/* #APP */
 755               	 ;  83 "c:/winavr-20100110/lib/gcc/../../avr/include/util/delay_basic.h" 1
 756 01ae 8A95      		1: dec r24
 757 01b0 01F4      		brne 1b
 758               	 ;  0 "" 2
 759               	/* #NOAPP */
 760               	.LBE387:
 761               	.LBE386:
 762               	.LBE385:
 763               	.LBE384:
 764               	.LBE383:
 765               	.LBE382:
 766               	.LBB388:
 767               	.LBB389:
 768               	.LBB390:
 769               	.LBB391:
 770               	.LM102:
 771 01b2 3D98      		cbi 39-32,5
 772               	.LBE391:
 773               	.LBE390:
 774               	.LBE389:
 775               	.LBE388:
 776               	.LBB392:
 777               	.LBB393:
 778               	.LBB394:
 779               	.LBB395:
 780               	.LBB396:
 781               	.LBB397:
 782               	.LM103:
 783 01b4 8E2F      		mov r24,r30
 784               	.LVL19:
 785               	/* #APP */
 786               	 ;  83 "c:/winavr-20100110/lib/gcc/../../avr/include/util/delay_basic.h" 1
 787 01b6 8A95      		1: dec r24
 788 01b8 01F4      		brne 1b
 789               	 ;  0 "" 2
 790               	/* #NOAPP */
 791               	.LBE397:
 792               	.LBE396:
 793               	.LBE395:
 794               	.LBE394:
 795               	.LBE393:
 796               	.LBE392:
 797               	.LM104:
 798 01ba 6F5F      		subi r22,lo8(-(1))
 799 01bc 6C30      		cpi r22,lo8(12)
 800 01be 01F0      		breq .L55
 801               	.LM105:
 802 01c0 440F      		lsl r20
 803 01c2 551F      		rol r21
 804 01c4 00C0      		rjmp .L56
 805               	.L55:
 806               	.LBE343:
 807               	.LBB398:
 808               	.LBB399:
 809               	.LBB400:
 810               	.LBB401:
 811               	.LBB402:
 812               	.LBB403:
 813               	.LBB404:
 814               	.LBB405:
 815               	.LM106:
 816 01c6 88EC      		ldi r24,lo8(200)
 817 01c8 90E0      		ldi r25,hi8(200)
 818               	.LVL20:
 819               	/* #APP */
 820               	 ;  105 "c:/winavr-20100110/lib/gcc/../../avr/include/util/delay_basic.h" 1
 821 01ca 0197      		1: sbiw r24,1
 822 01cc 01F4      		brne 1b
 823               	 ;  0 "" 2
 824               	/* #NOAPP */
 825               	.LBE405:
 826               	.LBE404:
 827               	.LBE403:
 828               	.LBE402:
 829               	.LBE401:
 830               	.LBE400:
 831               	.LBE399:
 832               	.LBE398:
 833               	.LM107:
 834 01ce C901      		movw r24,r18
 835               	.LVL21:
 836               	/* epilogue start */
 837 01d0 0895      		ret
 838               	.LFE26:
 840               	.global	OneWire_Bit_Sample_And_Update
 842               	OneWire_Bit_Sample_And_Update:
 843               	.LFB27:
 844               	.LM108:
 845               	/* prologue: function */
 846               	/* frame size = 0 */
 847               	.LM109:
 848 01d2 8091 0000 		lds r24,OneWire+1
 849 01d6 9091 0000 		lds r25,(OneWire+1)+1
 850 01da 880F      		lsl r24
 851 01dc 991F      		rol r25
 852 01de 9093 0000 		sts (OneWire+1)+1,r25
 853 01e2 8093 0000 		sts OneWire+1,r24
 854               	.LBB406:
 855               	.LBB407:
 856               	.LM110:
 857 01e6 449A      		sbi 40-32,4
 858               	.LBB408:
 859               	.LBB409:
 860               	.LBB410:
 861               	.LBB411:
 862               	.LM111:
 863 01e8 82E0      		ldi r24,lo8(2)
 864               	.LVL22:
 865               	/* #APP */
 866               	 ;  83 "c:/winavr-20100110/lib/gcc/../../avr/include/util/delay_basic.h" 1
 867 01ea 8A95      		1: dec r24
 868 01ec 01F4      		brne 1b
 869               	 ;  0 "" 2
 870               	/* #NOAPP */
 871               	.LBE411:
 872               	.LBE410:
 873               	.LBE409:
 874               	.LBE408:
 875               	.LM112:
 876 01ee 4498      		cbi 40-32,4
 877               	.LBE407:
 878               	.LBE406:
 879               	.LM113:
 880 01f0 2091 0000 		lds r18,OneWire+1
 881 01f4 3091 0000 		lds r19,(OneWire+1)+1
 882               	.LBB412:
 883               	.LBB413:
 884               	.LM114:
 885 01f8 86B1      		in r24,38-32
 886               	.LVL23:
 887               	.LBE413:
 888               	.LBE412:
 889               	.LM115:
 890 01fa 90E0      		ldi r25,lo8(0)
 891 01fc 45E0      		ldi r20,5
 892 01fe 9695      	1:	lsr r25
 893 0200 8795      		ror r24
 894 0202 4A95      		dec r20
 895 0204 01F4      		brne 1b
 896 0206 8170      		andi r24,lo8(1)
 897 0208 9070      		andi r25,hi8(1)
 898 020a 822B      		or r24,r18
 899 020c 932B      		or r25,r19
 900 020e 9093 0000 		sts (OneWire+1)+1,r25
 901 0212 8093 0000 		sts OneWire+1,r24
 902               	.LM116:
 903 0216 E0E0      		ldi r30,lo8(OneWire+1)
 904 0218 F0E0      		ldi r31,hi8(OneWire+1)
 905 021a 8291      		ld r24,-Z
 906 021c 8F5F      		subi r24,lo8(-(1))
 907 021e 8083      		st Z,r24
 908               	/* epilogue start */
 909               	.LM117:
 910 0220 0895      		ret
 911               	.LFE27:
 913               	.global	OneWire_Bit_Counter_Overflow
 915               	OneWire_Bit_Counter_Overflow:
 916               	.LFB28:
 917               	.LM118:
 918               	/* prologue: function */
 919               	/* frame size = 0 */
 920               	.LM119:
 921 0222 8091 0000 		lds r24,OneWire
 922 0226 8C30      		cpi r24,lo8(12)
 923 0228 00F4      		brsh .L61
 924 022a 80E0      		ldi r24,lo8(0)
 925 022c 0895      		ret
 926               	.L61:
 927               	.LM120:
 928 022e 1092 0000 		sts OneWire,__zero_reg__
 929 0232 81E0      		ldi r24,lo8(1)
 930               	.LM121:
 931 0234 0895      		ret
 932               	.LFE28:
 934               	.global	OneWire_Buf_Sample_And_Update
 936               	OneWire_Buf_Sample_And_Update:
 937               	.LFB29:
 938               	.LM122:
 939               	/* prologue: function */
 940               	/* frame size = 0 */
 941               	.LM123:
 942 0236 E091 0000 		lds r30,OneWire+245
 943 023a F0E0      		ldi r31,lo8(0)
 944 023c 8091 0000 		lds r24,OneWire+1
 945 0240 9091 0000 		lds r25,(OneWire+1)+1
 946 0244 EE0F      		lsl r30
 947 0246 FF1F      		rol r31
 948 0248 E050      		subi r30,lo8(-(OneWire))
 949 024a F040      		sbci r31,hi8(-(OneWire))
 950 024c 9683      		std Z+6,r25
 951 024e 8583      		std Z+5,r24
 952               	.LM124:
 953 0250 1092 0000 		sts (OneWire+1)+1,__zero_reg__
 954 0254 1092 0000 		sts OneWire+1,__zero_reg__
 955               	.LM125:
 956 0258 8091 0000 		lds r24,OneWire+245
 957 025c 8F5F      		subi r24,lo8(-(1))
 958 025e 8093 0000 		sts OneWire+245,r24
 959               	/* epilogue start */
 960               	.LM126:
 961 0262 0895      		ret
 962               	.LFE29:
 964               	.global	OneWire_Buf_Counter_Overflow
 966               	OneWire_Buf_Counter_Overflow:
 967               	.LFB30:
 968               	.LM127:
 969               	/* prologue: function */
 970               	/* frame size = 0 */
 971               	.LM128:
 972 0264 8091 0000 		lds r24,OneWire+245
 973 0268 8837      		cpi r24,lo8(120)
 974 026a 00F0      		brlo .L67
 975               	.LM129:
 976 026c 1092 0000 		sts OneWire+245,__zero_reg__
 977               	.LM130:
 978 0270 8091 0000 		lds r24,OneWire+3
 979 0274 9091 0000 		lds r25,(OneWire+3)+1
 980 0278 0196      		adiw r24,1
 981 027a 9093 0000 		sts (OneWire+3)+1,r25
 982 027e 8093 0000 		sts OneWire+3,r24
 983 0282 81E0      		ldi r24,lo8(1)
 984 0284 0895      		ret
 985               	.L67:
 986               	.LM131:
 987 0286 8091 0000 		lds r24,OneWire+3
 988 028a 9091 0000 		lds r25,(OneWire+3)+1
 989 028e 0196      		adiw r24,1
 990 0290 9093 0000 		sts (OneWire+3)+1,r25
 991 0294 8093 0000 		sts OneWire+3,r24
 992 0298 80E0      		ldi r24,lo8(0)
 993               	.LM132:
 994 029a 0895      		ret
 995               	.LFE30:
 997               	.global	OneWire_Fill_Buf
 999               	OneWire_Fill_Buf:
 1000               	.LFB31:
 1001               	.LM133:
 1002               	/* prologue: function */
 1003               	/* frame size = 0 */
 1004               	.LBB414:
 1005               	.LBB415:
 1006               	.LM134:
 1007 029c E091 0000 		lds r30,OneWire+245
 1008 02a0 F0E0      		ldi r31,lo8(0)
 1009 02a2 8091 0000 		lds r24,OneWire+1
 1010 02a6 9091 0000 		lds r25,(OneWire+1)+1
 1011 02aa EE0F      		lsl r30
 1012 02ac FF1F      		rol r31
 1013 02ae E050      		subi r30,lo8(-(OneWire))
 1014 02b0 F040      		sbci r31,hi8(-(OneWire))
 1015 02b2 9683      		std Z+6,r25
 1016 02b4 8583      		std Z+5,r24
 1017               	.LM135:
 1018 02b6 1092 0000 		sts (OneWire+1)+1,__zero_reg__
 1019 02ba 1092 0000 		sts OneWire+1,__zero_reg__
 1020               	.LM136:
 1021 02be 8091 0000 		lds r24,OneWire+245
 1022 02c2 8F5F      		subi r24,lo8(-(1))
 1023 02c4 8093 0000 		sts OneWire+245,r24
 1024               	.LBE415:
 1025               	.LBE414:
 1026               	.LM137:
 1027 02c8 0E94 0000 		call OneWire_Buf_Counter_Overflow
 1028               	.LM138:
 1029 02cc 8091 0000 		lds r24,OneWire+245
 1030 02d0 8823      		tst r24
 1031 02d2 01F0      		breq .L71
 1032 02d4 E091 0000 		lds r30,OneWire+245
 1033 02d8 F0E0      		ldi r31,lo8(0)
 1034 02da EE0F      		lsl r30
 1035 02dc FF1F      		rol r31
 1036 02de E050      		subi r30,lo8(-(OneWire-2))
 1037 02e0 F040      		sbci r31,hi8(-(OneWire-2))
 1038 02e2 8581      		ldd r24,Z+5
 1039 02e4 9681      		ldd r25,Z+6
 1040 02e6 93FF      		sbrs r25,3
 1041 02e8 00C0      		rjmp .L71
 1042               	.LM139:
 1043 02ea 81E0      		ldi r24,lo8(1)
 1044 02ec 8093 0000 		sts OneWire+246,r24
 1045               	.LM140:
 1046 02f0 E091 0000 		lds r30,OneWire+245
 1047 02f4 F0E0      		ldi r31,lo8(0)
 1048 02f6 EE0F      		lsl r30
 1049 02f8 FF1F      		rol r31
 1050 02fa E050      		subi r30,lo8(-(OneWire-2))
 1051 02fc F040      		sbci r31,hi8(-(OneWire-2))
 1052 02fe 8581      		ldd r24,Z+5
 1053 0300 9681      		ldd r25,Z+6
 1054 0302 8070      		andi r24,lo8(512)
 1055 0304 9270      		andi r25,hi8(512)
 1056 0306 9093 0000 		sts (OneWire+247)+1,r25
 1057 030a 8093 0000 		sts OneWire+247,r24
 1058               	.LM141:
 1059 030e E091 0000 		lds r30,OneWire+245
 1060 0312 F0E0      		ldi r31,lo8(0)
 1061 0314 EE0F      		lsl r30
 1062 0316 FF1F      		rol r31
 1063 0318 E050      		subi r30,lo8(-(OneWire-2))
 1064 031a F040      		sbci r31,hi8(-(OneWire-2))
 1065 031c 8581      		ldd r24,Z+5
 1066 031e 9681      		ldd r25,Z+6
 1067 0320 8E7F      		andi r24,lo8(510)
 1068 0322 9170      		andi r25,hi8(510)
 1069 0324 9695      		lsr r25
 1070 0326 8795      		ror r24
 1071 0328 9093 0000 		sts (OneWire+249)+1,r25
 1072 032c 8093 0000 		sts OneWire+249,r24
 1073               	.LBB416:
 1074               	.LBB417:
 1075               	.LM142:
 1076 0330 449A      		sbi 40-32,4
 1077               	.LBB418:
 1078               	.LBB419:
 1079               	.LBB420:
 1080               	.LBB421:
 1081               	.LM143:
 1082 0332 82E0      		ldi r24,lo8(2)
 1083               	.LVL24:
 1084               	/* #APP */
 1085               	 ;  83 "c:/winavr-20100110/lib/gcc/../../avr/include/util/delay_basic.h" 1
 1086 0334 8A95      		1: dec r24
 1087 0336 01F4      		brne 1b
 1088               	 ;  0 "" 2
 1089               	/* #NOAPP */
 1090               	.LBE421:
 1091               	.LBE420:
 1092               	.LBE419:
 1093               	.LBE418:
 1094               	.LM144:
 1095 0338 4498      		cbi 40-32,4
 1096 033a 0895      		ret
 1097               	.LVL25:
 1098               	.L71:
 1099               	.LBE417:
 1100               	.LBE416:
 1101               	.LM145:
 1102 033c E091 0000 		lds r30,OneWire+245
 1103 0340 F0E0      		ldi r31,lo8(0)
 1104 0342 EE0F      		lsl r30
 1105 0344 FF1F      		rol r31
 1106 0346 E050      		subi r30,lo8(-(OneWire-2))
 1107 0348 F040      		sbci r31,hi8(-(OneWire-2))
 1108 034a 8581      		ldd r24,Z+5
 1109 034c 9681      		ldd r25,Z+6
 1110 034e 92FF      		sbrs r25,2
 1111 0350 00C0      		rjmp .L73
 1112               	.LM146:
 1113 0352 1092 0000 		sts OneWire+246,__zero_reg__
 1114               	.LM147:
 1115 0356 1092 0000 		sts OneWire+245,__zero_reg__
 1116               	.LM148:
 1117 035a 1092 0000 		sts (OneWire+5)+1,__zero_reg__
 1118 035e 1092 0000 		sts OneWire+5,__zero_reg__
 1119               	.LM149:
 1120 0362 1092 0000 		sts (OneWire+247)+1,__zero_reg__
 1121 0366 1092 0000 		sts OneWire+247,__zero_reg__
 1122               	.LM150:
 1123 036a 1092 0000 		sts (OneWire+249)+1,__zero_reg__
 1124 036e 1092 0000 		sts OneWire+249,__zero_reg__
 1125               	.LM151:
 1126 0372 1092 0000 		sts OneWire+253,__zero_reg__
 1127               	.LM152:
 1128 0376 1092 0000 		sts OneWire+254,__zero_reg__
 1129               	.LBB422:
 1130               	.LBB423:
 1131               	.LM153:
 1132 037a 449A      		sbi 40-32,4
 1133               	.LBB424:
 1134               	.LBB425:
 1135               	.LBB426:
 1136               	.LBB427:
 1137               	.LM154:
 1138 037c 82E0      		ldi r24,lo8(2)
 1139               	.LVL26:
 1140               	/* #APP */
 1141               	 ;  83 "c:/winavr-20100110/lib/gcc/../../avr/include/util/delay_basic.h" 1
 1142 037e 8A95      		1: dec r24
 1143 0380 01F4      		brne 1b
 1144               	 ;  0 "" 2
 1145               	/* #NOAPP */
 1146               	.LBE427:
 1147               	.LBE426:
 1148               	.LBE425:
 1149               	.LBE424:
 1150               	.LM155:
 1151 0382 4498      		cbi 40-32,4
 1152               	.L73:
 1153 0384 0895      		ret
 1154               	.LBE423:
 1155               	.LBE422:
 1156               	.LFE31:
 1158               	.global	OneWire_Read_Mode_Feedback
 1160               	OneWire_Read_Mode_Feedback:
 1161               	.LFB32:
 1162               	.LM156:
 1163               	/* prologue: function */
 1164               	/* frame size = 0 */
 1165               	.LBB428:
 1166               	.LBB429:
 1167               	.LM157:
 1168 0386 8091 6C00 		lds r24,108
 1169 038a 8F7D      		andi r24,lo8(-33)
 1170 038c 8093 6C00 		sts 108,r24
 1171               	.LBE429:
 1172               	.LBE428:
 1173               	.LM158:
 1174 0390 8091 0000 		lds r24,OneWire+251
 1175 0394 9091 0000 		lds r25,(OneWire+251)+1
 1176 0398 93FF      		sbrs r25,3
 1177 039a 00C0      		rjmp .L75
 1178               	.LBB430:
 1179               	.LBB431:
 1180               	.LBB432:
 1181               	.LBB433:
 1182               	.LM159:
 1183 039c 3D98      		cbi 39-32,5
 1184 039e 00C0      		rjmp .L76
 1185               	.L75:
 1186               	.LBE433:
 1187               	.LBE432:
 1188               	.LBE431:
 1189               	.LBE430:
 1190               	.LBB434:
 1191               	.LBB435:
 1192               	.LBB436:
 1193               	.LBB437:
 1194               	.LM160:
 1195 03a0 3D9A      		sbi 39-32,5
 1196               	.L76:
 1197               	.LBE437:
 1198               	.LBE436:
 1199               	.LBE435:
 1200               	.LBE434:
 1201               	.LM161:
 1202 03a2 8091 0000 		lds r24,OneWire+251
 1203 03a6 9091 0000 		lds r25,(OneWire+251)+1
 1204 03aa 880F      		lsl r24
 1205 03ac 991F      		rol r25
 1206 03ae 9093 0000 		sts (OneWire+251)+1,r25
 1207 03b2 8093 0000 		sts OneWire+251,r24
 1208               	.LBB438:
 1209               	.LBB439:
 1210               	.LBB440:
 1211               	.LBB441:
 1212               	.LBB442:
 1213               	.LBB443:
 1214               	.LM162:
 1215 03b6 8AE6      		ldi r24,lo8(106)
 1216 03b8 982F      		mov r25,r24
 1217               	.LVL27:
 1218               	/* #APP */
 1219               	 ;  83 "c:/winavr-20100110/lib/gcc/../../avr/include/util/delay_basic.h" 1
 1220 03ba 9A95      		1: dec r25
 1221 03bc 01F4      		brne 1b
 1222               	 ;  0 "" 2
 1223               	/* #NOAPP */
 1224               	.LBE443:
 1225               	.LBE442:
 1226               	.LBE441:
 1227               	.LBE440:
 1228               	.LBE439:
 1229               	.LBE438:
 1230               	.LBB444:
 1231               	.LBB445:
 1232               	.LBB446:
 1233               	.LBB447:
 1234               	.LBB448:
 1235               	.LBB449:
 1236               	/* #APP */
 1237               	 ;  83 "c:/winavr-20100110/lib/gcc/../../avr/include/util/delay_basic.h" 1
 1238 03be 8A95      		1: dec r24
 1239 03c0 01F4      		brne 1b
 1240               	 ;  0 "" 2
 1241               	.LVL28:
 1242               	/* #NOAPP */
 1243               	.LBE449:
 1244               	.LBE448:
 1245               	.LBE447:
 1246               	.LBE446:
 1247               	.LBE445:
 1248               	.LBE444:
 1249               	.LBB450:
 1250               	.LBB451:
 1251               	.LBB452:
 1252               	.LBB453:
 1253               	.LM163:
 1254 03c2 3D98      		cbi 39-32,5
 1255               	.LBE453:
 1256               	.LBE452:
 1257               	.LBE451:
 1258               	.LBE450:
 1259               	.LBB454:
 1260               	.LBB455:
 1261               	.LM164:
 1262 03c4 8091 6C00 		lds r24,108
 1263               	.LVL29:
 1264 03c8 8062      		ori r24,lo8(32)
 1265 03ca 8093 6C00 		sts 108,r24
 1266               	/* epilogue start */
 1267               	.LBE455:
 1268               	.LBE454:
 1269               	.LM165:
 1270 03ce 0895      		ret
 1271               	.LFE32:
 1273               	.global	__vector_4
 1275               	__vector_4:
 1276               	.LFB33:
 1277               	.LM166:
 1278 03d0 1F92      		push __zero_reg__
 1279 03d2 0F92      		push r0
 1280 03d4 0FB6      		in r0,__SREG__
 1281 03d6 0F92      		push r0
 1282 03d8 1124      		clr __zero_reg__
 1283 03da 2F93      		push r18
 1284 03dc 3F93      		push r19
 1285 03de 4F93      		push r20
 1286 03e0 5F93      		push r21
 1287 03e2 6F93      		push r22
 1288 03e4 7F93      		push r23
 1289 03e6 8F93      		push r24
 1290 03e8 9F93      		push r25
 1291 03ea AF93      		push r26
 1292 03ec BF93      		push r27
 1293 03ee EF93      		push r30
 1294 03f0 FF93      		push r31
 1295               	/* prologue: Signal */
 1296               	/* frame size = 0 */
 1297               	.LBB456:
 1298               	.LBB457:
 1299               	.LM167:
 1300 03f2 8091 6C00 		lds r24,108
 1301 03f6 85FF      		sbrs r24,5
 1302 03f8 00C0      		rjmp .L83
 1303               	.LBE457:
 1304               	.LBE456:
 1305               	.LBB458:
 1306               	.LBB459:
 1307               	.LBB460:
 1308               	.LBB461:
 1309               	.LM168:
 1310 03fa 3599      		sbic 38-32,5
 1311 03fc 00C0      		rjmp .L83
 1312               	.LBE461:
 1313               	.LBE460:
 1314               	.LBE459:
 1315               	.LBE458:
 1316               	.LM169:
 1317 03fe 8091 0000 		lds r24,OneWire+246
 1318 0402 8130      		cpi r24,lo8(1)
 1319 0404 01F4      		brne .L80
 1320 0406 8091 0000 		lds r24,OneWire+247
 1321 040a 9091 0000 		lds r25,(OneWire+247)+1
 1322 040e 892B      		or r24,r25
 1323 0410 01F4      		brne .+2
 1324 0412 00C0      		rjmp .L81
 1325               	.L80:
 1326               	.LM170:
 1327 0414 2091 0000 		lds r18,OneWire+246
 1328 0418 2130      		cpi r18,lo8(1)
 1329 041a 01F0      		breq .+2
 1330 041c 00C0      		rjmp .L81
 1331 041e 8091 0000 		lds r24,OneWire+247
 1332 0422 9091 0000 		lds r25,(OneWire+247)+1
 1333 0426 8050      		subi r24,lo8(512)
 1334 0428 9240      		sbci r25,hi8(512)
 1335 042a 01F4      		brne .L81
 1336               	.LM171:
 1337 042c 8091 0000 		lds r24,OneWire+253
 1338 0430 8823      		tst r24
 1339 0432 01F4      		brne .L82
 1340               	.LM172:
 1341 0434 8091 0000 		lds r24,OneWire+249
 1342 0438 9091 0000 		lds r25,(OneWire+249)+1
 1343 043c 880F      		lsl r24
 1344 043e 991F      		rol r25
 1345 0440 8160      		ori r24,lo8(1025)
 1346 0442 9460      		ori r25,hi8(1025)
 1347 0444 9093 0000 		sts (OneWire+251)+1,r25
 1348 0448 8093 0000 		sts OneWire+251,r24
 1349               	.LM173:
 1350 044c 2093 0000 		sts OneWire+253,r18
 1351               	.L82:
 1352               	.LM174:
 1353 0450 0E94 0000 		call OneWire_Read_Mode_Feedback
 1354               	.LM175:
 1355 0454 8091 0000 		lds r24,OneWire+254
 1356 0458 8F5F      		subi r24,lo8(-(1))
 1357 045a 8093 0000 		sts OneWire+254,r24
 1358               	.LM176:
 1359 045e 8091 0000 		lds r24,OneWire+254
 1360 0462 8C30      		cpi r24,lo8(12)
 1361 0464 00F0      		brlo .L83
 1362               	.LM177:
 1363 0466 1092 0000 		sts OneWire+246,__zero_reg__
 1364               	.LM178:
 1365 046a 1092 0000 		sts OneWire+245,__zero_reg__
 1366               	.LM179:
 1367 046e 1092 0000 		sts (OneWire+5)+1,__zero_reg__
 1368 0472 1092 0000 		sts OneWire+5,__zero_reg__
 1369               	.LM180:
 1370 0476 1092 0000 		sts (OneWire+247)+1,__zero_reg__
 1371 047a 1092 0000 		sts OneWire+247,__zero_reg__
 1372               	.LM181:
 1373 047e 1092 0000 		sts (OneWire+249)+1,__zero_reg__
 1374 0482 1092 0000 		sts OneWire+249,__zero_reg__
 1375               	.LM182:
 1376 0486 1092 0000 		sts OneWire+253,__zero_reg__
 1377               	.LM183:
 1378 048a 1092 0000 		sts OneWire+254,__zero_reg__
 1379               	.LBB462:
 1380               	.LBB463:
 1381               	.LM184:
 1382 048e 449A      		sbi 40-32,4
 1383               	.LBB464:
 1384               	.LBB465:
 1385               	.LBB466:
 1386               	.LBB467:
 1387               	.LM185:
 1388 0490 82E0      		ldi r24,lo8(2)
 1389               	.LVL30:
 1390               	/* #APP */
 1391               	 ;  83 "c:/winavr-20100110/lib/gcc/../../avr/include/util/delay_basic.h" 1
 1392 0492 8A95      		1: dec r24
 1393 0494 01F4      		brne 1b
 1394               	 ;  0 "" 2
 1395               	/* #NOAPP */
 1396               	.LBE467:
 1397               	.LBE466:
 1398               	.LBE465:
 1399               	.LBE464:
 1400               	.LM186:
 1401 0496 4498      		cbi 40-32,4
 1402 0498 00C0      		rjmp .L83
 1403               	.LVL31:
 1404               	.L81:
 1405               	.LBE463:
 1406               	.LBE462:
 1407               	.LM187:
 1408 049a 0E94 0000 		call OneWire_Delay_Rx_Int
 1409               	.LM188:
 1410 049e 0E94 0000 		call OneWire_Bit_Sample_And_Update
 1411               	.LBB468:
 1412               	.LBB469:
 1413               	.LM189:
 1414 04a2 8091 0000 		lds r24,OneWire
 1415 04a6 8C30      		cpi r24,lo8(12)
 1416 04a8 00F0      		brlo .L83
 1417               	.LM190:
 1418 04aa 1092 0000 		sts OneWire,__zero_reg__
 1419               	.LBE469:
 1420               	.LBE468:
 1421               	.LM191:
 1422 04ae 0E94 0000 		call OneWire_Fill_Buf
 1423               	.LVL32:
 1424               	.L83:
 1425               	/* epilogue start */
 1426               	.LM192:
 1427 04b2 FF91      		pop r31
 1428 04b4 EF91      		pop r30
 1429 04b6 BF91      		pop r27
 1430 04b8 AF91      		pop r26
 1431 04ba 9F91      		pop r25
 1432 04bc 8F91      		pop r24
 1433               	.LVL33:
 1434 04be 7F91      		pop r23
 1435 04c0 6F91      		pop r22
 1436 04c2 5F91      		pop r21
 1437 04c4 4F91      		pop r20
 1438 04c6 3F91      		pop r19
 1439 04c8 2F91      		pop r18
 1440 04ca 0F90      		pop r0
 1441 04cc 0FBE      		out __SREG__,r0
 1442 04ce 0F90      		pop r0
 1443 04d0 1F90      		pop __zero_reg__
 1444 04d2 1895      		reti
 1445               	.LFE33:
 1447               	.global	OneWire_Init_Master
 1449               	OneWire_Init_Master:
 1450               	.LFB34:
 1451               	.LM193:
 1452               	/* prologue: function */
 1453               	/* frame size = 0 */
 1454               	.LM194:
 1455 04d4 0E94 0000 		call OneWire_Struct_Init
 1456               	.LM195:
 1457 04d8 0E94 0000 		call OneWire_TRX_GPIO_Init
 1458               	.LM196:
 1459 04dc 0E94 0000 		call OneWire_TRX_Interrupt_Init
 1460               	.LBB470:
 1461               	.LBB471:
 1462               	.LM197:
 1463 04e0 ECE6      		ldi r30,lo8(108)
 1464 04e2 F0E0      		ldi r31,hi8(108)
 1465 04e4 8081      		ld r24,Z
 1466 04e6 8F7D      		andi r24,lo8(-33)
 1467 04e8 8083      		st Z,r24
 1468               	/* epilogue start */
 1469               	.LBE471:
 1470               	.LBE470:
 1471               	.LM198:
 1472 04ea 0895      		ret
 1473               	.LFE34:
 1475               	.global	OneWire_Init_Slave
 1477               	OneWire_Init_Slave:
 1478               	.LFB35:
 1479               	.LM199:
 1480               	/* prologue: function */
 1481               	/* frame size = 0 */
 1482               	.LM200:
 1483 04ec 0E94 0000 		call OneWire_Struct_Init
 1484               	.LM201:
 1485 04f0 0E94 0000 		call OneWire_TRX_GPIO_Init
 1486               	.LM202:
 1487 04f4 0E94 0000 		call OneWire_TRX_Interrupt_Init
 1488               	.LBB472:
 1489               	.LBB473:
 1490               	.LM203:
 1491 04f8 ECE6      		ldi r30,lo8(108)
 1492 04fa F0E0      		ldi r31,hi8(108)
 1493 04fc 8081      		ld r24,Z
 1494 04fe 8062      		ori r24,lo8(32)
 1495 0500 8083      		st Z,r24
 1496               	/* epilogue start */
 1497               	.LBE473:
 1498               	.LBE472:
 1499               	.LM204:
 1500 0502 0895      		ret
 1501               	.LFE35:
 1503               		.comm OneWire,255,1
 1760               	.Letext0:
DEFINED SYMBOLS
                            *ABS*:00000000 onewire.c
C:\Users\farid\AppData\Local\Temp/ccHqFO5J.s:2      *ABS*:0000003f __SREG__
C:\Users\farid\AppData\Local\Temp/ccHqFO5J.s:3      *ABS*:0000003e __SP_H__
C:\Users\farid\AppData\Local\Temp/ccHqFO5J.s:4      *ABS*:0000003d __SP_L__
C:\Users\farid\AppData\Local\Temp/ccHqFO5J.s:5      *ABS*:00000034 __CCP__
C:\Users\farid\AppData\Local\Temp/ccHqFO5J.s:6      *ABS*:00000000 __tmp_reg__
C:\Users\farid\AppData\Local\Temp/ccHqFO5J.s:7      *ABS*:00000001 __zero_reg__
C:\Users\farid\AppData\Local\Temp/ccHqFO5J.s:18     .text:00000000 OneWire_Struct_Init
                            *COM*:000000ff OneWire
C:\Users\farid\AppData\Local\Temp/ccHqFO5J.s:73     .text:00000058 OneWire_Flush_Frame
C:\Users\farid\AppData\Local\Temp/ccHqFO5J.s:90     .text:00000066 OneWire_Flush_Frame_Buf
C:\Users\farid\AppData\Local\Temp/ccHqFO5J.s:123    .text:00000086 OneWire_TRX_Set_DDR
C:\Users\farid\AppData\Local\Temp/ccHqFO5J.s:143    .text:00000092 OneWire_TRX_Set_Port
C:\Users\farid\AppData\Local\Temp/ccHqFO5J.s:163    .text:0000009e OneWire_TRX_Get_Input_State
C:\Users\farid\AppData\Local\Temp/ccHqFO5J.s:184    .text:000000b0 OneWire_TRX_Set_Logic
C:\Users\farid\AppData\Local\Temp/ccHqFO5J.s:212    .text:000000bc OneWire_TRX_GPIO_Init
C:\Users\farid\AppData\Local\Temp/ccHqFO5J.s:249    .text:000000c8 OneWire_TRX_Interrupt_Init
C:\Users\farid\AppData\Local\Temp/ccHqFO5J.s:281    .text:000000e2 OneWire_TRX_Interrupt_Enable
C:\Users\farid\AppData\Local\Temp/ccHqFO5J.s:299    .text:000000ee OneWire_TRX_Interrupt_Disable
C:\Users\farid\AppData\Local\Temp/ccHqFO5J.s:317    .text:000000fa OneWire_TRX_Interrupt_Status
C:\Users\farid\AppData\Local\Temp/ccHqFO5J.s:338    .text:0000010e OneWire_TRX_Falling_Edge_Interrupt
C:\Users\farid\AppData\Local\Temp/ccHqFO5J.s:361    .text:0000011c OneWire_Debug_Tx_Pulse
C:\Users\farid\AppData\Local\Temp/ccHqFO5J.s:373    .text:0000011e OneWire_Debug_Rx_Pulse
C:\Users\farid\AppData\Local\Temp/ccHqFO5J.s:406    .text:0000012a OneWire_Delay_Clock_Low_Time
C:\Users\farid\AppData\Local\Temp/ccHqFO5J.s:435    .text:00000132 OneWire_Delay_Clock_High_Time
C:\Users\farid\AppData\Local\Temp/ccHqFO5J.s:464    .text:0000013a OneWire_Delay_Half_Bit_Time
C:\Users\farid\AppData\Local\Temp/ccHqFO5J.s:493    .text:00000142 OneWire_Delay_Byte_Gap
C:\Users\farid\AppData\Local\Temp/ccHqFO5J.s:527    .text:0000014c OneWire_Delay_Rx_Int
C:\Users\farid\AppData\Local\Temp/ccHqFO5J.s:599    .text:0000016a OneWire_TRX_Byte
C:\Users\farid\AppData\Local\Temp/ccHqFO5J.s:842    .text:000001d2 OneWire_Bit_Sample_And_Update
C:\Users\farid\AppData\Local\Temp/ccHqFO5J.s:915    .text:00000222 OneWire_Bit_Counter_Overflow
C:\Users\farid\AppData\Local\Temp/ccHqFO5J.s:936    .text:00000236 OneWire_Buf_Sample_And_Update
C:\Users\farid\AppData\Local\Temp/ccHqFO5J.s:966    .text:00000264 OneWire_Buf_Counter_Overflow
C:\Users\farid\AppData\Local\Temp/ccHqFO5J.s:999    .text:0000029c OneWire_Fill_Buf
C:\Users\farid\AppData\Local\Temp/ccHqFO5J.s:1160   .text:00000386 OneWire_Read_Mode_Feedback
C:\Users\farid\AppData\Local\Temp/ccHqFO5J.s:1275   .text:000003d0 __vector_4
C:\Users\farid\AppData\Local\Temp/ccHqFO5J.s:1449   .text:000004d4 OneWire_Init_Master
C:\Users\farid\AppData\Local\Temp/ccHqFO5J.s:1477   .text:000004ec OneWire_Init_Slave

UNDEFINED SYMBOLS
__do_clear_bss
